target datalayout = "e-m:e-p270:32:32-p271:32:32-p272:64:64-i64:64-i128:128-f80:128-n8:16:32:64-S128"
target triple = "x86_64-pc-linux-gnu"

%struct.Lab = type { i32, i32, i32 }
%struct.color_ref = type { i32, %struct.Lab, i64 }

; Function Attrs: nounwind uwtable
define internal i32 @cmp_baL(ptr noundef %0, ptr noundef %1) #0 {
  %3 = alloca ptr, align 8
  %4 = alloca ptr, align 8
  %5 = alloca ptr, align 8
  %6 = alloca ptr, align 8
  %7 = alloca i32, align 4
  %8 = alloca i32, align 4
  %9 = alloca i32, align 4
  store ptr %0, ptr %3, align 8, !tbaa !81
  store ptr %1, ptr %4, align 8, !tbaa !81
  call void @llvm.lifetime.start.p0(i64 8, ptr %5) #10
  %10 = load ptr, ptr %3, align 8, !tbaa !81
  store ptr %10, ptr %5, align 8, !tbaa !101
  call void @llvm.lifetime.start.p0(i64 8, ptr %6) #10
  %11 = load ptr, ptr %4, align 8, !tbaa !81
  store ptr %11, ptr %6, align 8, !tbaa !101
  call void @llvm.lifetime.start.p0(i64 4, ptr %7) #10
  %12 = load ptr, ptr %5, align 8, !tbaa !101
  %13 = load ptr, ptr %12, align 8, !tbaa !85
  %14 = getelementptr inbounds nuw %struct.color_ref, ptr %13, i32 0, i32 1
  %15 = getelementptr inbounds nuw %struct.Lab, ptr %14, i32 0, i32 2
  %16 = load i32, ptr %15, align 4, !tbaa !106
  %17 = load ptr, ptr %6, align 8, !tbaa !101
  %18 = load ptr, ptr %17, align 8, !tbaa !85
  %19 = getelementptr inbounds nuw %struct.color_ref, ptr %18, i32 0, i32 1
  %20 = getelementptr inbounds nuw %struct.Lab, ptr %19, i32 0, i32 2
  %21 = load i32, ptr %20, align 4, !tbaa !106
  %22 = icmp sgt i32 %16, %21
  %23 = zext i1 %22 to i32
  %24 = load ptr, ptr %5, align 8, !tbaa !101
  %25 = load ptr, ptr %24, align 8, !tbaa !85
  %26 = getelementptr inbounds nuw %struct.color_ref, ptr %25, i32 0, i32 1
  %27 = getelementptr inbounds nuw %struct.Lab, ptr %26, i32 0, i32 2
  %28 = load i32, ptr %27, align 4, !tbaa !106
  %29 = load ptr, ptr %6, align 8, !tbaa !101
  %30 = load ptr, ptr %29, align 8, !tbaa !85
  %31 = getelementptr inbounds nuw %struct.color_ref, ptr %30, i32 0, i32 1
  %32 = getelementptr inbounds nuw %struct.Lab, ptr %31, i32 0, i32 2
  %33 = load i32, ptr %32, align 4, !tbaa !106
  %34 = icmp slt i32 %28, %33
  %35 = zext i1 %34 to i32
  %36 = sub nsw i32 %23, %35
  store i32 %36, ptr %7, align 4, !tbaa !29
  call void @llvm.lifetime.start.p0(i64 4, ptr %8) #10
  %37 = load ptr, ptr %5, align 8, !tbaa !101
  %38 = load ptr, ptr %37, align 8, !tbaa !85
  %39 = getelementptr inbounds nuw %struct.color_ref, ptr %38, i32 0, i32 1
  %40 = getelementptr inbounds nuw %struct.Lab, ptr %39, i32 0, i32 1
  %41 = load i32, ptr %40, align 4, !tbaa !105
  %42 = load ptr, ptr %6, align 8, !tbaa !101
  %43 = load ptr, ptr %42, align 8, !tbaa !85
  %44 = getelementptr inbounds nuw %struct.color_ref, ptr %43, i32 0, i32 1
  %45 = getelementptr inbounds nuw %struct.Lab, ptr %44, i32 0, i32 1
  %46 = load i32, ptr %45, align 4, !tbaa !105
  %47 = icmp sgt i32 %41, %46
  %48 = zext i1 %47 to i32
  %49 = load ptr, ptr %5, align 8, !tbaa !101
  %50 = load ptr, ptr %49, align 8, !tbaa !85
  %51 = getelementptr inbounds nuw %struct.color_ref, ptr %50, i32 0, i32 1
  %52 = getelementptr inbounds nuw %struct.Lab, ptr %51, i32 0, i32 1
  %53 = load i32, ptr %52, align 4, !tbaa !105
  %54 = load ptr, ptr %6, align 8, !tbaa !101
  %55 = load ptr, ptr %54, align 8, !tbaa !85
  %56 = getelementptr inbounds nuw %struct.color_ref, ptr %55, i32 0, i32 1
  %57 = getelementptr inbounds nuw %struct.Lab, ptr %56, i32 0, i32 1
  %58 = load i32, ptr %57, align 4, !tbaa !105
  %59 = icmp slt i32 %53, %58
  %60 = zext i1 %59 to i32
  %61 = sub nsw i32 %48, %60
  store i32 %61, ptr %8, align 4, !tbaa !29
  call void @llvm.lifetime.start.p0(i64 4, ptr %9) #10
  %62 = load ptr, ptr %5, align 8, !tbaa !101
  %63 = load ptr, ptr %62, align 8, !tbaa !85
  %64 = getelementptr inbounds nuw %struct.color_ref, ptr %63, i32 0, i32 1
  %65 = getelementptr inbounds nuw %struct.Lab, ptr %64, i32 0, i32 0
  %66 = load i32, ptr %65, align 4, !tbaa !104
  %67 = load ptr, ptr %6, align 8, !tbaa !101
  %68 = load ptr, ptr %67, align 8, !tbaa !85
  %69 = getelementptr inbounds nuw %struct.color_ref, ptr %68, i32 0, i32 1
  %70 = getelementptr inbounds nuw %struct.Lab, ptr %69, i32 0, i32 0
  %71 = load i32, ptr %70, align 4, !tbaa !104
  %72 = icmp sgt i32 %66, %71
  %73 = zext i1 %72 to i32
  %74 = load ptr, ptr %5, align 8, !tbaa !101
  %75 = load ptr, ptr %74, align 8, !tbaa !85
  %76 = getelementptr inbounds nuw %struct.color_ref, ptr %75, i32 0, i32 1
  %77 = getelementptr inbounds nuw %struct.Lab, ptr %76, i32 0, i32 0
  %78 = load i32, ptr %77, align 4, !tbaa !104
  %79 = load ptr, ptr %6, align 8, !tbaa !101
  %80 = load ptr, ptr %79, align 8, !tbaa !85
  %81 = getelementptr inbounds nuw %struct.color_ref, ptr %80, i32 0, i32 1
  %82 = getelementptr inbounds nuw %struct.Lab, ptr %81, i32 0, i32 0
  %83 = load i32, ptr %82, align 4, !tbaa !104
  %84 = icmp slt i32 %78, %83
  %85 = zext i1 %84 to i32
  %86 = sub nsw i32 %73, %85
  store i32 %86, ptr %9, align 4, !tbaa !29
  %87 = load i32, ptr %7, align 4, !tbaa !29
  %88 = icmp ne i32 %87, 0
  br i1 %88, label %89, label %91

89:                                               ; preds = %2
  %90 = load i32, ptr %7, align 4, !tbaa !29
  br label %100

91:                                               ; preds = %2
  %92 = load i32, ptr %8, align 4, !tbaa !29
  %93 = icmp ne i32 %92, 0
  br i1 %93, label %94, label %96

94:                                               ; preds = %91
  %95 = load i32, ptr %8, align 4, !tbaa !29
  br label %98

96:                                               ; preds = %91
  %97 = load i32, ptr %9, align 4, !tbaa !29
  br label %98

98:                                               ; preds = %96, %94
  %99 = phi i32 [ %95, %94 ], [ %97, %96 ]
  br label %100

100:                                              ; preds = %98, %89
  %101 = phi i32 [ %90, %89 ], [ %99, %98 ]
  call void @llvm.lifetime.end.p0(i64 4, ptr %9) #10
  call void @llvm.lifetime.end.p0(i64 4, ptr %8) #10
  call void @llvm.lifetime.end.p0(i64 4, ptr %7) #10
  call void @llvm.lifetime.end.p0(i64 8, ptr %6) #10
  call void @llvm.lifetime.end.p0(i64 8, ptr %5) #10
  ret i32 %101
}